target datalayout = "e-m:e-p270:32:32-p271:32:32-p272:64:64-i64:64-i128:128-f80:128-n8:16:32:64-S128"
target triple = "x86_64-pc-linux-gnu"

%"class.std::__cxx11::basic_string" = type { %"struct.std::__cxx11::basic_string<char>::_Alloc_hider", i64, %union.anon }
%"struct.std::__cxx11::basic_string<char>::_Alloc_hider" = type { ptr }
%union.anon = type { i64, [8 x i8] }

@.str = private unnamed_addr constant [3 x i8] c"%c\00", align 1
@.str.1 = private unnamed_addr constant [27 x i8] c"%c\09File '%s' was generated\00", align 1
@.str.2 = private unnamed_addr constant [8 x i8] c"unknown\00", align 1
@.str.3 = private unnamed_addr constant [20 x i8] c"%c\09By user: %s (%d)\00", align 1
@.str.4 = private unnamed_addr constant [15 x i8] c"%c\09On host: %s\00", align 1
@.str.5 = private unnamed_addr constant [15 x i8] c"%c\09At date: %s\00", align 1

; Function Attrs: mustprogress uwtable
define void @_ZN3gmx10niceHeaderEPNS_10TextWriterEPKcc(ptr noundef %0, ptr noundef %1, i8 noundef signext %2) #0 personality ptr @__gxx_personality_v0 {
  %4 = alloca ptr, align 8
  %5 = alloca ptr, align 8
  %6 = alloca i8, align 1
  %7 = alloca [256 x i8], align 16
  %8 = alloca [256 x i8], align 16
  %9 = alloca %"class.std::__cxx11::basic_string", align 8
  %10 = alloca ptr, align 8
  %11 = alloca i32, align 4
  %12 = alloca %"class.std::__cxx11::basic_string", align 8
  %13 = alloca i32, align 4
  %14 = alloca %"class.std::__cxx11::basic_string", align 8
  %15 = alloca %"class.std::__cxx11::basic_string", align 8
  %16 = alloca %"class.std::__cxx11::basic_string", align 8
  %17 = alloca %"class.std::__cxx11::basic_string", align 8
  %18 = alloca %"class.std::__cxx11::basic_string", align 8
  store ptr %0, ptr %4, align 8
  store ptr %1, ptr %5, align 8
  store i8 %2, ptr %6, align 1
  %19 = load ptr, ptr %4, align 8
  %20 = load i8, ptr %6, align 1
  %21 = sext i8 %20 to i32
  call void (ptr, ptr, ...) @_ZN3gmx12formatStringB5cxx11EPKcz(ptr dead_on_unwind writable sret(%"class.std::__cxx11::basic_string") align 8 %9, ptr noundef @.str, i32 noundef %21)
  invoke void @_ZN3gmx10TextWriter9writeLineERKNSt7__cxx1112basic_stringIcSt11char_traitsIcESaIcEEE(ptr noundef nonnull align 8 dereferenceable(8) %19, ptr noundef nonnull align 8 dereferenceable(32) %9)
          to label %22 unwind label %60

22:                                               ; preds = %3
  call void @_ZNSt7__cxx1112basic_stringIcSt11char_traitsIcESaIcEED1Ev(ptr noundef nonnull align 8 dereferenceable(32) %9) #3
  %23 = load ptr, ptr %4, align 8
  %24 = load i8, ptr %6, align 1
  %25 = sext i8 %24 to i32
  %26 = load ptr, ptr %5, align 8
  %27 = icmp ne ptr %26, null
  br i1 %27, label %28, label %30

28:                                               ; preds = %22
  %29 = load ptr, ptr %5, align 8
  br label %31

30:                                               ; preds = %22
  br label %31

31:                                               ; preds = %30, %28
  %32 = phi ptr [ %29, %28 ], [ @.str.2, %30 ]
  call void (ptr, ptr, ...) @_ZN3gmx12formatStringB5cxx11EPKcz(ptr dead_on_unwind writable sret(%"class.std::__cxx11::basic_string") align 8 %12, ptr noundef @.str.1, i32 noundef %25, ptr noundef %32)
  invoke void @_ZN3gmx10TextWriter9writeLineERKNSt7__cxx1112basic_stringIcSt11char_traitsIcESaIcEEE(ptr noundef nonnull align 8 dereferenceable(8) %23, ptr noundef nonnull align 8 dereferenceable(32) %12)
          to label %33 unwind label %64

33:                                               ; preds = %31
  call void @_ZNSt7__cxx1112basic_stringIcSt11char_traitsIcESaIcEED1Ev(ptr noundef nonnull align 8 dereferenceable(32) %12) #3
  %34 = call noundef i32 @_Z10gmx_getuidv()
  store i32 %34, ptr %13, align 4
  %35 = getelementptr inbounds [256 x i8], ptr %7, i64 0, i64 0
  %36 = call noundef i32 @_Z15gmx_getusernamePcm(ptr noundef %35, i64 noundef 256)
  %37 = getelementptr inbounds [256 x i8], ptr %8, i64 0, i64 0
  %38 = call noundef i32 @_Z15gmx_gethostnamePcm(ptr noundef %37, i64 noundef 256)
  %39 = load ptr, ptr %4, align 8
  %40 = load i8, ptr %6, align 1
  %41 = sext i8 %40 to i32
  %42 = getelementptr inbounds [256 x i8], ptr %7, i64 0, i64 0
  %43 = load i32, ptr %13, align 4
  call void (ptr, ptr, ...) @_ZN3gmx12formatStringB5cxx11EPKcz(ptr dead_on_unwind writable sret(%"class.std::__cxx11::basic_string") align 8 %14, ptr noundef @.str.3, i32 noundef %41, ptr noundef %42, i32 noundef %43)
  invoke void @_ZN3gmx10TextWriter9writeLineERKNSt7__cxx1112basic_stringIcSt11char_traitsIcESaIcEEE(ptr noundef nonnull align 8 dereferenceable(8) %39, ptr noundef nonnull align 8 dereferenceable(32) %14)
          to label %44 unwind label %68

44:                                               ; preds = %33
  call void @_ZNSt7__cxx1112basic_stringIcSt11char_traitsIcESaIcEED1Ev(ptr noundef nonnull align 8 dereferenceable(32) %14) #3
  %45 = load ptr, ptr %4, align 8
  %46 = load i8, ptr %6, align 1
  %47 = sext i8 %46 to i32
  %48 = getelementptr inbounds [256 x i8], ptr %8, i64 0, i64 0
  call void (ptr, ptr, ...) @_ZN3gmx12formatStringB5cxx11EPKcz(ptr dead_on_unwind writable sret(%"class.std::__cxx11::basic_string") align 8 %15, ptr noundef @.str.4, i32 noundef %47, ptr noundef %48)
  invoke void @_ZN3gmx10TextWriter9writeLineERKNSt7__cxx1112basic_stringIcSt11char_traitsIcESaIcEEE(ptr noundef nonnull align 8 dereferenceable(8) %45, ptr noundef nonnull align 8 dereferenceable(32) %15)
          to label %49 unwind label %72

49:                                               ; preds = %44
  call void @_ZNSt7__cxx1112basic_stringIcSt11char_traitsIcESaIcEED1Ev(ptr noundef nonnull align 8 dereferenceable(32) %15) #3
  %50 = load ptr, ptr %4, align 8
  %51 = load i8, ptr %6, align 1
  %52 = sext i8 %51 to i32
  call void @_Z23gmx_format_current_timeB5cxx11v(ptr dead_on_unwind writable sret(%"class.std::__cxx11::basic_string") align 8 %17)
  %53 = call noundef ptr @_ZNKSt7__cxx1112basic_stringIcSt11char_traitsIcESaIcEE5c_strEv(ptr noundef nonnull align 8 dereferenceable(32) %17) #3
  invoke void (ptr, ptr, ...) @_ZN3gmx12formatStringB5cxx11EPKcz(ptr dead_on_unwind writable sret(%"class.std::__cxx11::basic_string") align 8 %16, ptr noundef @.str.5, i32 noundef %52, ptr noundef %53)
          to label %54 unwind label %76

54:                                               ; preds = %49
  invoke void @_ZN3gmx10TextWriter9writeLineERKNSt7__cxx1112basic_stringIcSt11char_traitsIcESaIcEEE(ptr noundef nonnull align 8 dereferenceable(8) %50, ptr noundef nonnull align 8 dereferenceable(32) %16)
          to label %55 unwind label %80

55:                                               ; preds = %54
  call void @_ZNSt7__cxx1112basic_stringIcSt11char_traitsIcESaIcEED1Ev(ptr noundef nonnull align 8 dereferenceable(32) %16) #3
  call void @_ZNSt7__cxx1112basic_stringIcSt11char_traitsIcESaIcEED1Ev(ptr noundef nonnull align 8 dereferenceable(32) %17) #3
  %56 = load ptr, ptr %4, align 8
  %57 = load i8, ptr %6, align 1
  %58 = sext i8 %57 to i32
  call void (ptr, ptr, ...) @_ZN3gmx12formatStringB5cxx11EPKcz(ptr dead_on_unwind writable sret(%"class.std::__cxx11::basic_string") align 8 %18, ptr noundef @.str, i32 noundef %58)
  invoke void @_ZN3gmx10TextWriter9writeLineERKNSt7__cxx1112basic_stringIcSt11char_traitsIcESaIcEEE(ptr noundef nonnull align 8 dereferenceable(8) %56, ptr noundef nonnull align 8 dereferenceable(32) %18)
          to label %59 unwind label %85

59:                                               ; preds = %55
  call void @_ZNSt7__cxx1112basic_stringIcSt11char_traitsIcESaIcEED1Ev(ptr noundef nonnull align 8 dereferenceable(32) %18) #3
  ret void

60:                                               ; preds = %3
  %61 = landingpad { ptr, i32 }
          cleanup
  %62 = extractvalue { ptr, i32 } %61, 0
  store ptr %62, ptr %10, align 8
  %63 = extractvalue { ptr, i32 } %61, 1
  store i32 %63, ptr %11, align 4
  call void @_ZNSt7__cxx1112basic_stringIcSt11char_traitsIcESaIcEED1Ev(ptr noundef nonnull align 8 dereferenceable(32) %9) #3
  br label %89

64:                                               ; preds = %31
  %65 = landingpad { ptr, i32 }
          cleanup
  %66 = extractvalue { ptr, i32 } %65, 0
  store ptr %66, ptr %10, align 8
  %67 = extractvalue { ptr, i32 } %65, 1
  store i32 %67, ptr %11, align 4
  call void @_ZNSt7__cxx1112basic_stringIcSt11char_traitsIcESaIcEED1Ev(ptr noundef nonnull align 8 dereferenceable(32) %12) #3
  br label %89

68:                                               ; preds = %33
  %69 = landingpad { ptr, i32 }
          cleanup
  %70 = extractvalue { ptr, i32 } %69, 0
  store ptr %70, ptr %10, align 8
  %71 = extractvalue { ptr, i32 } %69, 1
  store i32 %71, ptr %11, align 4
  call void @_ZNSt7__cxx1112basic_stringIcSt11char_traitsIcESaIcEED1Ev(ptr noundef nonnull align 8 dereferenceable(32) %14) #3
  br label %89

72:                                               ; preds = %44
  %73 = landingpad { ptr, i32 }
          cleanup
  %74 = extractvalue { ptr, i32 } %73, 0
  store ptr %74, ptr %10, align 8
  %75 = extractvalue { ptr, i32 } %73, 1
  store i32 %75, ptr %11, align 4
  call void @_ZNSt7__cxx1112basic_stringIcSt11char_traitsIcESaIcEED1Ev(ptr noundef nonnull align 8 dereferenceable(32) %15) #3
  br label %89

76:                                               ; preds = %49
  %77 = landingpad { ptr, i32 }
          cleanup
  %78 = extractvalue { ptr, i32 } %77, 0
  store ptr %78, ptr %10, align 8
  %79 = extractvalue { ptr, i32 } %77, 1
  store i32 %79, ptr %11, align 4
  br label %84

80:                                               ; preds = %54
  %81 = landingpad { ptr, i32 }
          cleanup
  %82 = extractvalue { ptr, i32 } %81, 0
  store ptr %82, ptr %10, align 8
  %83 = extractvalue { ptr, i32 } %81, 1
  store i32 %83, ptr %11, align 4
  call void @_ZNSt7__cxx1112basic_stringIcSt11char_traitsIcESaIcEED1Ev(ptr noundef nonnull align 8 dereferenceable(32) %16) #3
  br label %84

84:                                               ; preds = %80, %76
  call void @_ZNSt7__cxx1112basic_stringIcSt11char_traitsIcESaIcEED1Ev(ptr noundef nonnull align 8 dereferenceable(32) %17) #3
  br label %89

85:                                               ; preds = %55
  %86 = landingpad { ptr, i32 }
          cleanup
  %87 = extractvalue { ptr, i32 } %86, 0
  store ptr %87, ptr %10, align 8
  %88 = extractvalue { ptr, i32 } %86, 1
  store i32 %88, ptr %11, align 4
  call void @_ZNSt7__cxx1112basic_stringIcSt11char_traitsIcESaIcEED1Ev(ptr noundef nonnull align 8 dereferenceable(32) %18) #3
  br label %89

89:                                               ; preds = %85, %84, %72, %68, %64, %60
  %90 = load ptr, ptr %10, align 8
  %91 = load i32, ptr %11, align 4
  %92 = insertvalue { ptr, i32 } poison, ptr %90, 0
  %93 = insertvalue { ptr, i32 } %92, i32 %91, 1
  resume { ptr, i32 } %93
}

declare void @_ZN3gmx10TextWriter9writeLineERKNSt7__cxx1112basic_stringIcSt11char_traitsIcESaIcEEE(ptr noundef nonnull align 8 dereferenceable(8), ptr noundef nonnull align 8 dereferenceable(32)) #1

declare void @_ZN3gmx12formatStringB5cxx11EPKcz(ptr dead_on_unwind writable sret(%"class.std::__cxx11::basic_string") align 8, ptr noundef, ...) #1

declare i32 @__gxx_personality_v0(...)

; Function Attrs: nounwind
declare void @_ZNSt7__cxx1112basic_stringIcSt11char_traitsIcESaIcEED1Ev(ptr noundef nonnull align 8 dereferenceable(32)) unnamed_addr #2

declare noundef i32 @_Z10gmx_getuidv() #1

declare noundef i32 @_Z15gmx_getusernamePcm(ptr noundef, i64 noundef) #1

declare noundef i32 @_Z15gmx_gethostnamePcm(ptr noundef, i64 noundef) #1

declare void @_Z23gmx_format_current_timeB5cxx11v(ptr dead_on_unwind writable sret(%"class.std::__cxx11::basic_string") align 8) #1

; Function Attrs: nounwind
declare noundef ptr @_ZNKSt7__cxx1112basic_stringIcSt11char_traitsIcESaIcEE5c_strEv(ptr noundef nonnull align 8 dereferenceable(32)) #2


!llvm.module.flags = !{!0, !1, !2, !3, !4}

!0 = !{i32 1, !"wchar_size", i32 4}
!1 = !{i32 7, !"openmp", i32 51}
!2 = !{i32 8, !"PIC Level", i32 2}
!3 = !{i32 7, !"uwtable", i32 2}
!4 = !{i32 7, !"frame-pointer", i32 2}
