; ModuleID = 'bench/gromacs/original/niceheader.cpp.ll'
source_filename = "bench/gromacs/original/niceheader.cpp.ll"
target datalayout = "e-m:e-p270:32:32-p271:32:32-p272:64:64-i64:64-i128:128-f80:128-n8:16:32:64-S128"
target triple = "x86_64-pc-linux-gnu"

%"class.std::__cxx11::basic_string" = type { %"struct.std::__cxx11::basic_string<char>::_Alloc_hider", i64, %union.anon }
%"struct.std::__cxx11::basic_string<char>::_Alloc_hider" = type { ptr }
%union.anon = type { i64, [8 x i8] }

@.str = private unnamed_addr constant [3 x i8] c"%c\00", align 1
@.str.1 = private unnamed_addr constant [27 x i8] c"%c\09File '%s' was generated\00", align 1
@.str.2 = private unnamed_addr constant [8 x i8] c"unknown\00", align 1
@.str.3 = private unnamed_addr constant [20 x i8] c"%c\09By user: %s (%d)\00", align 1
@.str.4 = private unnamed_addr constant [15 x i8] c"%c\09On host: %s\00", align 1
@.str.5 = private unnamed_addr constant [15 x i8] c"%c\09At date: %s\00", align 1

; Function Attrs: mustprogress uwtable
define void @_ZN3gmx10niceHeaderEPNS_10TextWriterEPKcc(ptr noundef %0, ptr noundef %1, i8 noundef signext %2) local_unnamed_addr #0 personality ptr @__gxx_personality_v0 {
  %4 = alloca [256 x i8], align 16
  %5 = alloca [256 x i8], align 16
  %6 = alloca %"class.std::__cxx11::basic_string", align 8
  %7 = alloca %"class.std::__cxx11::basic_string", align 8
  %8 = alloca %"class.std::__cxx11::basic_string", align 8
  %9 = alloca %"class.std::__cxx11::basic_string", align 8
  %10 = alloca %"class.std::__cxx11::basic_string", align 8
  %11 = alloca %"class.std::__cxx11::basic_string", align 8
  %12 = alloca %"class.std::__cxx11::basic_string", align 8
  %13 = sext i8 %2 to i32
  call void (ptr, ptr, ...) @_ZN3gmx12formatStringB5cxx11EPKcz(ptr dead_on_unwind nonnull writable sret(%"class.std::__cxx11::basic_string") align 8 %6, ptr noundef nonnull @.str, i32 noundef %13)
  invoke void @_ZN3gmx10TextWriter9writeLineERKNSt7__cxx1112basic_stringIcSt11char_traitsIcESaIcEEE(ptr noundef nonnull align 8 dereferenceable(8) %0, ptr noundef nonnull align 8 dereferenceable(32) %6)
          to label %14 unwind label %26

14:                                               ; preds = %3
  call void @_ZNSt7__cxx1112basic_stringIcSt11char_traitsIcESaIcEED1Ev(ptr noundef nonnull align 8 dereferenceable(32) %6) #3
  %.not = icmp eq ptr %1, null
  %15 = select i1 %.not, ptr @.str.2, ptr %1
  call void (ptr, ptr, ...) @_ZN3gmx12formatStringB5cxx11EPKcz(ptr dead_on_unwind nonnull writable sret(%"class.std::__cxx11::basic_string") align 8 %7, ptr noundef nonnull @.str.1, i32 noundef %13, ptr noundef nonnull %15)
  invoke void @_ZN3gmx10TextWriter9writeLineERKNSt7__cxx1112basic_stringIcSt11char_traitsIcESaIcEEE(ptr noundef nonnull align 8 dereferenceable(8) %0, ptr noundef nonnull align 8 dereferenceable(32) %7)
          to label %16 unwind label %28

16:                                               ; preds = %14
  call void @_ZNSt7__cxx1112basic_stringIcSt11char_traitsIcESaIcEED1Ev(ptr noundef nonnull align 8 dereferenceable(32) %7) #3
  %17 = call noundef i32 @_Z10gmx_getuidv()
  %18 = call noundef i32 @_Z15gmx_getusernamePcm(ptr noundef nonnull %4, i64 noundef 256)
  %19 = call noundef i32 @_Z15gmx_gethostnamePcm(ptr noundef nonnull %5, i64 noundef 256)
  call void (ptr, ptr, ...) @_ZN3gmx12formatStringB5cxx11EPKcz(ptr dead_on_unwind nonnull writable sret(%"class.std::__cxx11::basic_string") align 8 %8, ptr noundef nonnull @.str.3, i32 noundef %13, ptr noundef nonnull %4, i32 noundef %17)
  invoke void @_ZN3gmx10TextWriter9writeLineERKNSt7__cxx1112basic_stringIcSt11char_traitsIcESaIcEEE(ptr noundef nonnull align 8 dereferenceable(8) %0, ptr noundef nonnull align 8 dereferenceable(32) %8)
          to label %20 unwind label %30

20:                                               ; preds = %16
  call void @_ZNSt7__cxx1112basic_stringIcSt11char_traitsIcESaIcEED1Ev(ptr noundef nonnull align 8 dereferenceable(32) %8) #3
  call void (ptr, ptr, ...) @_ZN3gmx12formatStringB5cxx11EPKcz(ptr dead_on_unwind nonnull writable sret(%"class.std::__cxx11::basic_string") align 8 %9, ptr noundef nonnull @.str.4, i32 noundef %13, ptr noundef nonnull %5)
  invoke void @_ZN3gmx10TextWriter9writeLineERKNSt7__cxx1112basic_stringIcSt11char_traitsIcESaIcEEE(ptr noundef nonnull align 8 dereferenceable(8) %0, ptr noundef nonnull align 8 dereferenceable(32) %9)
          to label %21 unwind label %32

21:                                               ; preds = %20
  call void @_ZNSt7__cxx1112basic_stringIcSt11char_traitsIcESaIcEED1Ev(ptr noundef nonnull align 8 dereferenceable(32) %9) #3
  call void @_Z23gmx_format_current_timeB5cxx11v(ptr dead_on_unwind nonnull writable sret(%"class.std::__cxx11::basic_string") align 8 %11)
  %22 = call noundef ptr @_ZNKSt7__cxx1112basic_stringIcSt11char_traitsIcESaIcEE5c_strEv(ptr noundef nonnull align 8 dereferenceable(32) %11) #3
  invoke void (ptr, ptr, ...) @_ZN3gmx12formatStringB5cxx11EPKcz(ptr dead_on_unwind nonnull writable sret(%"class.std::__cxx11::basic_string") align 8 %10, ptr noundef nonnull @.str.5, i32 noundef %13, ptr noundef %22)
          to label %23 unwind label %34

23:                                               ; preds = %21
  invoke void @_ZN3gmx10TextWriter9writeLineERKNSt7__cxx1112basic_stringIcSt11char_traitsIcESaIcEEE(ptr noundef nonnull align 8 dereferenceable(8) %0, ptr noundef nonnull align 8 dereferenceable(32) %10)
          to label %24 unwind label %36

24:                                               ; preds = %23
  call void @_ZNSt7__cxx1112basic_stringIcSt11char_traitsIcESaIcEED1Ev(ptr noundef nonnull align 8 dereferenceable(32) %10) #3
  call void @_ZNSt7__cxx1112basic_stringIcSt11char_traitsIcESaIcEED1Ev(ptr noundef nonnull align 8 dereferenceable(32) %11) #3
  call void (ptr, ptr, ...) @_ZN3gmx12formatStringB5cxx11EPKcz(ptr dead_on_unwind nonnull writable sret(%"class.std::__cxx11::basic_string") align 8 %12, ptr noundef nonnull @.str, i32 noundef %13)
  invoke void @_ZN3gmx10TextWriter9writeLineERKNSt7__cxx1112basic_stringIcSt11char_traitsIcESaIcEEE(ptr noundef nonnull align 8 dereferenceable(8) %0, ptr noundef nonnull align 8 dereferenceable(32) %12)
          to label %25 unwind label %38

25:                                               ; preds = %24
  call void @_ZNSt7__cxx1112basic_stringIcSt11char_traitsIcESaIcEED1Ev(ptr noundef nonnull align 8 dereferenceable(32) %12) #3
  ret void

26:                                               ; preds = %3
  %27 = landingpad { ptr, i32 }
          cleanup
  br label %40

28:                                               ; preds = %14
  %29 = landingpad { ptr, i32 }
          cleanup
  br label %40

30:                                               ; preds = %16
  %31 = landingpad { ptr, i32 }
          cleanup
  br label %40

32:                                               ; preds = %20
  %33 = landingpad { ptr, i32 }
          cleanup
  br label %40

34:                                               ; preds = %21
  %35 = landingpad { ptr, i32 }
          cleanup
  br label %40

36:                                               ; preds = %23
  %37 = landingpad { ptr, i32 }
          cleanup
  call void @_ZNSt7__cxx1112basic_stringIcSt11char_traitsIcESaIcEED1Ev(ptr noundef nonnull align 8 dereferenceable(32) %10) #3
  br label %40

38:                                               ; preds = %24
  %39 = landingpad { ptr, i32 }
          cleanup
  br label %40

40:                                               ; preds = %34, %36, %38, %32, %30, %28, %26
  %.sink = phi ptr [ %12, %38 ], [ %9, %32 ], [ %8, %30 ], [ %7, %28 ], [ %6, %26 ], [ %11, %36 ], [ %11, %34 ]
  %.pn19 = phi { ptr, i32 } [ %39, %38 ], [ %33, %32 ], [ %31, %30 ], [ %29, %28 ], [ %27, %26 ], [ %37, %36 ], [ %35, %34 ]
  call void @_ZNSt7__cxx1112basic_stringIcSt11char_traitsIcESaIcEED1Ev(ptr noundef nonnull align 8 dereferenceable(32) %.sink) #3
  resume { ptr, i32 } %.pn19
}

declare void @_ZN3gmx10TextWriter9writeLineERKNSt7__cxx1112basic_stringIcSt11char_traitsIcESaIcEEE(ptr noundef nonnull align 8 dereferenceable(8), ptr noundef nonnull align 8 dereferenceable(32)) local_unnamed_addr #1

declare void @_ZN3gmx12formatStringB5cxx11EPKcz(ptr dead_on_unwind writable sret(%"class.std::__cxx11::basic_string") align 8, ptr noundef, ...) local_unnamed_addr #1

declare i32 @__gxx_personality_v0(...)

; Function Attrs: nounwind
declare void @_ZNSt7__cxx1112basic_stringIcSt11char_traitsIcESaIcEED1Ev(ptr noundef nonnull align 8 dereferenceable(32)) unnamed_addr #2

declare noundef i32 @_Z10gmx_getuidv() local_unnamed_addr #1

declare noundef i32 @_Z15gmx_getusernamePcm(ptr noundef, i64 noundef) local_unnamed_addr #1

declare noundef i32 @_Z15gmx_gethostnamePcm(ptr noundef, i64 noundef) local_unnamed_addr #1

declare void @_Z23gmx_format_current_timeB5cxx11v(ptr dead_on_unwind writable sret(%"class.std::__cxx11::basic_string") align 8) local_unnamed_addr #1

; Function Attrs: nounwind
declare noundef ptr @_ZNKSt7__cxx1112basic_stringIcSt11char_traitsIcESaIcEE5c_strEv(ptr noundef nonnull align 8 dereferenceable(32)) local_unnamed_addr #2


!llvm.module.flags = !{!0, !1, !2, !3, !4}

!0 = !{i32 1, !"wchar_size", i32 4}
!1 = !{i32 7, !"openmp", i32 51}
!2 = !{i32 8, !"PIC Level", i32 2}
!3 = !{i32 7, !"uwtable", i32 2}
!4 = !{i32 7, !"frame-pointer", i32 2}
